target datalayout = "e-m:e-p270:32:32-p271:32:32-p272:64:64-i64:64-i128:128-f80:128-n8:16:32:64-S128"
target triple = "x86_64-pc-linux-gnu"

%struct.Object = type { ptr, ptr, ptr, i32, ptr }
%struct.QTailQLink = type { ptr, ptr }
%struct.AHCIDevice = type { %struct.IDEDMA, %struct.IDEBus, i32, i32, i32, %struct.AHCIPortRegs, ptr, ptr, ptr, ptr, i8, i32, i8, ptr, [32 x %struct.NCQTransferState], %struct.MemReentrancyGuard }
%struct.IDEDMA = type { ptr, %struct.QEMUIOVector, ptr }
%struct.QEMUIOVector = type { ptr, i32, %union.anon.3 }
%union.anon.3 = type { %struct.anon.4 }
%struct.anon.4 = type { i32, %struct.iovec }
%struct.iovec = type { ptr, i64 }
%struct.IDEBus = type { %struct.BusState, ptr, ptr, [2 x %struct.IDEState], ptr, i32, i32, ptr, i8, i8, ptr, i32, i8, i64, i32, %struct.PortioList, %struct.PortioList, ptr }
%struct.BusState = type { %struct.Object, ptr, ptr, ptr, i32, i8, i8, i32, %union.BusChildHead, %struct.BusStateEntry, %struct.ResettableState }
%union.BusChildHead = type { %struct.QTailQLink }
%struct.BusStateEntry = type { ptr, ptr }
%struct.ResettableState = type { i32, i8, i8 }
%struct.IDEState = type { ptr, i8, i32, i32, i32, i32, i32, i32, i32, i64, i32, i32, [512 x i8], i32, [21 x i8], [41 x i8], i8, i64, i8, i8, i32, i8, i8, i8, i8, i8, i8, i8, i8, i8, i8, i8, i8, i8, ptr, [9 x i8], %struct.unreported_events, i8, i8, i8, i8, i8, i32, i32, i32, i32, i32, i32, %struct.BlockAcctCookie, ptr, %struct.QEMUIOVector, %struct.anon.6, i64, i32, %struct.QEMUSGList, i32, ptr, ptr, ptr, ptr, i32, i32, i32, i8, ptr, i32, i8, i32, ptr, i32, i32, i8, i8, i32, i8, ptr, i32 }
%struct.unreported_events = type { i8, i8 }
%struct.BlockAcctCookie = type { i64, i64, i32 }
%struct.anon.6 = type { ptr }
%struct.QEMUSGList = type { ptr, i32, i32, i64, ptr, ptr }
%struct.PortioList = type { ptr, ptr, ptr, i32, i32, ptr, ptr, ptr, i8 }
%struct.AHCIPortRegs = type { i32, i32, i32, i32, i32, i32, i32, i32, i32, i32, i32, i32, i32, i32, i32, i32 }
%struct.NCQTransferState = type { ptr, ptr, ptr, %struct.QEMUSGList, %struct.BlockAcctCookie, i32, i64, i8, i8, i8, i8, i8 }
%struct.MemReentrancyGuard = type { i8 }

; Function Attrs: nounwind sspstrong uwtable
define internal zeroext i1 @ahci_write_fis_d2h(ptr noundef %0, i1 noundef zeroext %1) #0 {
  %3 = alloca i1, align 1
  %4 = alloca ptr, align 8
  %5 = alloca i8, align 1
  %6 = alloca ptr, align 8
  %7 = alloca ptr, align 8
  %8 = alloca i32, align 4
  %9 = alloca ptr, align 8
  %10 = alloca i32, align 4
  store ptr %0, ptr %4, align 8
  %11 = zext i1 %1 to i8
  store i8 %11, ptr %5, align 1
  call void @llvm.lifetime.start.p0(i64 8, ptr %6) #15
  %12 = load ptr, ptr %4, align 8
  %13 = getelementptr inbounds nuw %struct.AHCIDevice, ptr %12, i32 0, i32 5
  store ptr %13, ptr %6, align 8
  call void @llvm.lifetime.start.p0(i64 8, ptr %7) #15
  store ptr null, ptr %7, align 8, !annotation !4
  call void @llvm.lifetime.start.p0(i64 4, ptr %8) #15
  store i32 0, ptr %8, align 4, !annotation !4
  call void @llvm.lifetime.start.p0(i64 8, ptr %9) #15
  %14 = load ptr, ptr %4, align 8
  %15 = getelementptr inbounds nuw %struct.AHCIDevice, ptr %14, i32 0, i32 1
  %16 = getelementptr inbounds nuw %struct.IDEBus, ptr %15, i32 0, i32 3
  %17 = getelementptr inbounds [2 x %struct.IDEState], ptr %16, i64 0, i64 0
  store ptr %17, ptr %9, align 8
  %18 = load ptr, ptr %4, align 8
  %19 = getelementptr inbounds nuw %struct.AHCIDevice, ptr %18, i32 0, i32 9
  %20 = load ptr, ptr %19, align 8
  %21 = icmp ne ptr %20, null
  br i1 %21, label %22, label %28

22:                                               ; preds = %2
  %23 = load ptr, ptr %6, align 8
  %24 = getelementptr inbounds nuw %struct.AHCIPortRegs, ptr %23, i32 0, i32 6
  %25 = load i32, ptr %24, align 4
  %26 = and i32 %25, 16
  %27 = icmp ne i32 %26, 0
  br i1 %27, label %29, label %28

28:                                               ; preds = %22, %2
  store i1 false, ptr %3, align 1
  store i32 1, ptr %10, align 4
  br label %155

29:                                               ; preds = %22
  %30 = load ptr, ptr %4, align 8
  %31 = getelementptr inbounds nuw %struct.AHCIDevice, ptr %30, i32 0, i32 9
  %32 = load ptr, ptr %31, align 8
  %33 = getelementptr inbounds i8, ptr %32, i64 64
  store ptr %33, ptr %7, align 8
  %34 = load ptr, ptr %7, align 8
  %35 = getelementptr inbounds i8, ptr %34, i64 0
  store i8 52, ptr %35, align 1
  %36 = load i8, ptr %5, align 1, !range !11, !noundef !12
  %37 = trunc i8 %36 to i1
  %38 = select i1 %37, i32 64, i32 0
  %39 = trunc i32 %38 to i8
  %40 = load ptr, ptr %7, align 8
  %41 = getelementptr inbounds i8, ptr %40, i64 1
  store i8 %39, ptr %41, align 1
  %42 = load ptr, ptr %9, align 8
  %43 = getelementptr inbounds nuw %struct.IDEState, ptr %42, i32 0, i32 30
  %44 = load i8, ptr %43, align 1
  %45 = load ptr, ptr %7, align 8
  %46 = getelementptr inbounds i8, ptr %45, i64 2
  store i8 %44, ptr %46, align 1
  %47 = load ptr, ptr %9, align 8
  %48 = getelementptr inbounds nuw %struct.IDEState, ptr %47, i32 0, i32 19
  %49 = load i8, ptr %48, align 1
  %50 = load ptr, ptr %7, align 8
  %51 = getelementptr inbounds i8, ptr %50, i64 3
  store i8 %49, ptr %51, align 1
  %52 = load ptr, ptr %9, align 8
  %53 = getelementptr inbounds nuw %struct.IDEState, ptr %52, i32 0, i32 21
  %54 = load i8, ptr %53, align 8
  %55 = load ptr, ptr %7, align 8
  %56 = getelementptr inbounds i8, ptr %55, i64 4
  store i8 %54, ptr %56, align 1
  %57 = load ptr, ptr %9, align 8
  %58 = getelementptr inbounds nuw %struct.IDEState, ptr %57, i32 0, i32 22
  %59 = load i8, ptr %58, align 1
  %60 = load ptr, ptr %7, align 8
  %61 = getelementptr inbounds i8, ptr %60, i64 5
  store i8 %59, ptr %61, align 1
  %62 = load ptr, ptr %9, align 8
  %63 = getelementptr inbounds nuw %struct.IDEState, ptr %62, i32 0, i32 23
  %64 = load i8, ptr %63, align 2
  %65 = load ptr, ptr %7, align 8
  %66 = getelementptr inbounds i8, ptr %65, i64 6
  store i8 %64, ptr %66, align 1
  %67 = load ptr, ptr %9, align 8
  %68 = getelementptr inbounds nuw %struct.IDEState, ptr %67, i32 0, i32 29
  %69 = load i8, ptr %68, align 8
  %70 = load ptr, ptr %7, align 8
  %71 = getelementptr inbounds i8, ptr %70, i64 7
  store i8 %69, ptr %71, align 1
  %72 = load ptr, ptr %9, align 8
  %73 = getelementptr inbounds nuw %struct.IDEState, ptr %72, i32 0, i32 26
  %74 = load i8, ptr %73, align 1
  %75 = load ptr, ptr %7, align 8
  %76 = getelementptr inbounds i8, ptr %75, i64 8
  store i8 %74, ptr %76, align 1
  %77 = load ptr, ptr %9, align 8
  %78 = getelementptr inbounds nuw %struct.IDEState, ptr %77, i32 0, i32 27
  %79 = load i8, ptr %78, align 2
  %80 = load ptr, ptr %7, align 8
  %81 = getelementptr inbounds i8, ptr %80, i64 9
  store i8 %79, ptr %81, align 1
  %82 = load ptr, ptr %9, align 8
  %83 = getelementptr inbounds nuw %struct.IDEState, ptr %82, i32 0, i32 28
  %84 = load i8, ptr %83, align 1
  %85 = load ptr, ptr %7, align 8
  %86 = getelementptr inbounds i8, ptr %85, i64 10
  store i8 %84, ptr %86, align 1
  %87 = load ptr, ptr %7, align 8
  %88 = getelementptr inbounds i8, ptr %87, i64 11
  store i8 0, ptr %88, align 1
  %89 = load ptr, ptr %9, align 8
  %90 = getelementptr inbounds nuw %struct.IDEState, ptr %89, i32 0, i32 20
  %91 = load i32, ptr %90, align 4
  %92 = and i32 %91, 255
  %93 = trunc i32 %92 to i8
  %94 = load ptr, ptr %7, align 8
  %95 = getelementptr inbounds i8, ptr %94, i64 12
  store i8 %93, ptr %95, align 1
  %96 = load ptr, ptr %9, align 8
  %97 = getelementptr inbounds nuw %struct.IDEState, ptr %96, i32 0, i32 20
  %98 = load i32, ptr %97, align 4
  %99 = lshr i32 %98, 8
  %100 = and i32 %99, 255
  %101 = trunc i32 %100 to i8
  %102 = load ptr, ptr %7, align 8
  %103 = getelementptr inbounds i8, ptr %102, i64 13
  store i8 %101, ptr %103, align 1
  store i32 14, ptr %8, align 4
  br label %104

104:                                              ; preds = %112, %29
  %105 = load i32, ptr %8, align 4
  %106 = icmp slt i32 %105, 20
  br i1 %106, label %107, label %115

107:                                              ; preds = %104
  %108 = load ptr, ptr %7, align 8
  %109 = load i32, ptr %8, align 4
  %110 = sext i32 %109 to i64
  %111 = getelementptr inbounds i8, ptr %108, i64 %110
  store i8 0, ptr %111, align 1
  br label %112

112:                                              ; preds = %107
  %113 = load i32, ptr %8, align 4
  %114 = add i32 %113, 1
  store i32 %114, ptr %8, align 4
  br label %104, !llvm.loop !19

115:                                              ; preds = %104
  %116 = load ptr, ptr %4, align 8
  %117 = getelementptr inbounds nuw %struct.AHCIDevice, ptr %116, i32 0, i32 1
  %118 = getelementptr inbounds nuw %struct.IDEBus, ptr %117, i32 0, i32 3
  %119 = getelementptr inbounds [2 x %struct.IDEState], ptr %118, i64 0, i64 0
  %120 = getelementptr inbounds nuw %struct.IDEState, ptr %119, i32 0, i32 19
  %121 = load i8, ptr %120, align 1
  %122 = zext i8 %121 to i32
  %123 = shl i32 %122, 8
  %124 = load ptr, ptr %4, align 8
  %125 = getelementptr inbounds nuw %struct.AHCIDevice, ptr %124, i32 0, i32 1
  %126 = getelementptr inbounds nuw %struct.IDEBus, ptr %125, i32 0, i32 3
  %127 = getelementptr inbounds [2 x %struct.IDEState], ptr %126, i64 0, i64 0
  %128 = getelementptr inbounds nuw %struct.IDEState, ptr %127, i32 0, i32 30
  %129 = load i8, ptr %128, align 1
  %130 = zext i8 %129 to i32
  %131 = or i32 %123, %130
  %132 = load ptr, ptr %6, align 8
  %133 = getelementptr inbounds nuw %struct.AHCIPortRegs, ptr %132, i32 0, i32 8
  store i32 %131, ptr %133, align 4
  %134 = load ptr, ptr %7, align 8
  %135 = getelementptr inbounds i8, ptr %134, i64 2
  %136 = load i8, ptr %135, align 1
  %137 = zext i8 %136 to i32
  %138 = and i32 %137, 1
  %139 = icmp ne i32 %138, 0
  br i1 %139, label %140, label %145

140:                                              ; preds = %115
  %141 = load ptr, ptr %4, align 8
  %142 = getelementptr inbounds nuw %struct.AHCIDevice, ptr %141, i32 0, i32 6
  %143 = load ptr, ptr %142, align 8
  %144 = load ptr, ptr %4, align 8
  call void @ahci_trigger_irq(ptr noundef %143, ptr noundef %144, i32 noundef 30)
  br label %154

145:                                              ; preds = %115
  %146 = load i8, ptr %5, align 1, !range !11, !noundef !12
  %147 = trunc i8 %146 to i1
  br i1 %147, label %148, label %153

148:                                              ; preds = %145
  %149 = load ptr, ptr %4, align 8
  %150 = getelementptr inbounds nuw %struct.AHCIDevice, ptr %149, i32 0, i32 6
  %151 = load ptr, ptr %150, align 8
  %152 = load ptr, ptr %4, align 8
  call void @ahci_trigger_irq(ptr noundef %151, ptr noundef %152, i32 noundef 0)
  br label %153

153:                                              ; preds = %148, %145
  br label %154

154:                                              ; preds = %153, %140
  store i1 true, ptr %3, align 1
  store i32 1, ptr %10, align 4
  br label %155

155:                                              ; preds = %154, %28
  call void @llvm.lifetime.end.p0(i64 8, ptr %9) #15
  call void @llvm.lifetime.end.p0(i64 4, ptr %8) #15
  call void @llvm.lifetime.end.p0(i64 8, ptr %7) #15
  call void @llvm.lifetime.end.p0(i64 8, ptr %6) #15
  %156 = load i1, ptr %3, align 1
  ret i1 %156
}

; Function Attrs: nounwind sspstrong uwtable
define internal void @ahci_init_d2h(ptr noundef %0) #0 {
  %2 = alloca ptr, align 8
  %3 = alloca ptr, align 8
  %4 = alloca ptr, align 8
  %5 = alloca i32, align 4
  store ptr %0, ptr %2, align 8
  call void @llvm.lifetime.start.p0(i64 8, ptr %3) #15
  %6 = load ptr, ptr %2, align 8
  %7 = getelementptr inbounds nuw %struct.AHCIDevice, ptr %6, i32 0, i32 1
  %8 = getelementptr inbounds nuw %struct.IDEBus, ptr %7, i32 0, i32 3
  %9 = getelementptr inbounds [2 x %struct.IDEState], ptr %8, i64 0, i64 0
  store ptr %9, ptr %3, align 8
  call void @llvm.lifetime.start.p0(i64 8, ptr %4) #15
  %10 = load ptr, ptr %2, align 8
  %11 = getelementptr inbounds nuw %struct.AHCIDevice, ptr %10, i32 0, i32 5
  store ptr %11, ptr %4, align 8
  %12 = load ptr, ptr %2, align 8
  %13 = getelementptr inbounds nuw %struct.AHCIDevice, ptr %12, i32 0, i32 12
  %14 = load i8, ptr %13, align 8, !range !11, !noundef !12
  %15 = trunc i8 %14 to i1
  br i1 %15, label %16, label %17

16:                                               ; preds = %1
  store i32 1, ptr %5, align 4
  br label %48

17:                                               ; preds = %1
  %18 = load ptr, ptr %2, align 8
  %19 = call zeroext i1 @ahci_write_fis_d2h(ptr noundef %18, i1 noundef zeroext true)
  br i1 %19, label %20, label %47

20:                                               ; preds = %17
  %21 = load ptr, ptr %2, align 8
  %22 = getelementptr inbounds nuw %struct.AHCIDevice, ptr %21, i32 0, i32 12
  store i8 1, ptr %22, align 8
  %23 = load ptr, ptr %3, align 8
  %24 = getelementptr inbounds nuw %struct.IDEState, ptr %23, i32 0, i32 23
  %25 = load i8, ptr %24, align 2
  %26 = zext i8 %25 to i32
  %27 = shl i32 %26, 24
  %28 = load ptr, ptr %3, align 8
  %29 = getelementptr inbounds nuw %struct.IDEState, ptr %28, i32 0, i32 22
  %30 = load i8, ptr %29, align 1
  %31 = zext i8 %30 to i32
  %32 = shl i32 %31, 16
  %33 = or i32 %27, %32
  %34 = load ptr, ptr %3, align 8
  %35 = getelementptr inbounds nuw %struct.IDEState, ptr %34, i32 0, i32 21
  %36 = load i8, ptr %35, align 8
  %37 = zext i8 %36 to i32
  %38 = shl i32 %37, 8
  %39 = or i32 %33, %38
  %40 = load ptr, ptr %3, align 8
  %41 = getelementptr inbounds nuw %struct.IDEState, ptr %40, i32 0, i32 20
  %42 = load i32, ptr %41, align 4
  %43 = and i32 %42, 255
  %44 = or i32 %39, %43
  %45 = load ptr, ptr %4, align 8
  %46 = getelementptr inbounds nuw %struct.AHCIPortRegs, ptr %45, i32 0, i32 9
  store i32 %44, ptr %46, align 4
  br label %47

47:                                               ; preds = %20, %17
  store i32 0, ptr %5, align 4
  br label %48

48:                                               ; preds = %47, %16
  call void @llvm.lifetime.end.p0(i64 8, ptr %4) #15
  call void @llvm.lifetime.end.p0(i64 8, ptr %3) #15
  %49 = load i32, ptr %5, align 4
  switch i32 %49, label %51 [
    i32 0, label %50
    i32 1, label %50
  ]

50:                                               ; preds = %48, %48
  ret void

51:                                               ; preds = %48
  unreachable
}