; Function Attrs: nounwind sspstrong uwtable
define internal fastcc void @ahci_init_d2h(ptr noundef captures(none) %0) unnamed_addr #0 {
  %2 = getelementptr inbounds nuw i8, ptr %0, i64 2480
  %3 = load i8, ptr %2, align 8, !range !9, !noundef !10
  %4 = trunc nuw i8 %3 to i1
  br i1 %4, label %ahci_write_fis_d2h.exit.thread, label %5

5:                                                ; preds = %1
  %6 = getelementptr inbounds nuw i8, ptr %0, i64 2464
  %7 = load ptr, ptr %6, align 8
  %.not.i = icmp eq ptr %7, null
  br i1 %.not.i, label %ahci_write_fis_d2h.exit.thread, label %8

8:                                                ; preds = %5
  %9 = getelementptr inbounds nuw i8, ptr %0, i64 2396
  %10 = load i32, ptr %9, align 4
  %11 = and i32 %10, 16
  %.not46.i = icmp eq i32 %11, 0
  br i1 %.not46.i, label %ahci_write_fis_d2h.exit.thread, label %12

12:                                               ; preds = %8
  %13 = getelementptr inbounds nuw i8, ptr %7, i64 64
  store i8 52, ptr %13, align 1
  %14 = getelementptr inbounds nuw i8, ptr %7, i64 65
  store i8 64, ptr %14, align 1
  %15 = getelementptr inbounds nuw i8, ptr %0, i64 857
  %16 = load i8, ptr %15, align 1
  %17 = getelementptr inbounds nuw i8, ptr %7, i64 66
  store i8 %16, ptr %17, align 1
  %18 = getelementptr inbounds nuw i8, ptr %0, i64 841
  %19 = load i8, ptr %18, align 1
  %20 = getelementptr inbounds nuw i8, ptr %7, i64 67
  store i8 %19, ptr %20, align 1
  %21 = getelementptr inbounds nuw i8, ptr %0, i64 848
  %22 = load i8, ptr %21, align 8
  %23 = getelementptr inbounds nuw i8, ptr %7, i64 68
  store i8 %22, ptr %23, align 1
  %24 = getelementptr i8, ptr %0, i64 849
  %25 = load i8, ptr %24, align 1
  %26 = getelementptr inbounds nuw i8, ptr %7, i64 69
  store i8 %25, ptr %26, align 1
  %27 = getelementptr inbounds nuw i8, ptr %0, i64 850
  %28 = load i8, ptr %27, align 2
  %29 = getelementptr inbounds nuw i8, ptr %7, i64 70
  store i8 %28, ptr %29, align 1
  %30 = getelementptr inbounds nuw i8, ptr %0, i64 856
  %31 = load i8, ptr %30, align 8
  %32 = getelementptr inbounds nuw i8, ptr %7, i64 71
  store i8 %31, ptr %32, align 1
  %33 = getelementptr inbounds nuw i8, ptr %0, i64 853
  %34 = load i8, ptr %33, align 1
  %35 = getelementptr inbounds nuw i8, ptr %7, i64 72
  store i8 %34, ptr %35, align 1
  %36 = getelementptr inbounds nuw i8, ptr %0, i64 854
  %37 = load i8, ptr %36, align 2
  %38 = getelementptr inbounds nuw i8, ptr %7, i64 73
  store i8 %37, ptr %38, align 1
  %39 = getelementptr inbounds nuw i8, ptr %0, i64 855
  %40 = load i8, ptr %39, align 1
  %41 = getelementptr inbounds nuw i8, ptr %7, i64 74
  store i8 %40, ptr %41, align 1
  %42 = getelementptr inbounds nuw i8, ptr %7, i64 75
  store i8 0, ptr %42, align 1
  %43 = getelementptr inbounds nuw i8, ptr %0, i64 844
  %44 = load i32, ptr %43, align 4
  %45 = trunc i32 %44 to i8
  %46 = getelementptr inbounds nuw i8, ptr %7, i64 76
  store i8 %45, ptr %46, align 1
  %47 = load i32, ptr %43, align 4
  %48 = lshr i32 %47, 8
  %49 = trunc i32 %48 to i8
  %50 = getelementptr inbounds nuw i8, ptr %7, i64 77
  store i8 %49, ptr %50, align 1
  %scevgep.i = getelementptr i8, ptr %7, i64 78
  tail call void @llvm.memset.p0.i64(ptr noundef nonnull align 1 dereferenceable(6) %scevgep.i, i8 0, i64 6, i1 false)
  %51 = load i8, ptr %18, align 1
  %52 = zext i8 %51 to i32
  %53 = shl nuw nsw i32 %52, 8
  %54 = load i8, ptr %15, align 1
  %55 = zext i8 %54 to i32
  %56 = or disjoint i32 %53, %55
  %57 = getelementptr inbounds nuw i8, ptr %0, i64 2404
  store i32 %56, ptr %57, align 4
  %58 = load i8, ptr %17, align 1
  %59 = and i8 %58, 1
  %.not47.i.not = icmp eq i8 %59, 0
  %.mux.i = select i1 %.not47.i.not, i32 0, i32 30
  %60 = getelementptr inbounds nuw i8, ptr %0, i64 2440
  %61 = load ptr, ptr %60, align 8
  tail call fastcc void @ahci_trigger_irq(ptr noundef %61, ptr noundef nonnull %0, i32 noundef %.mux.i)
  store i8 1, ptr %2, align 8
  %62 = load i16, ptr %24, align 1
  %63 = zext i16 %62 to i32
  %64 = shl nuw i32 %63, 16
  %65 = load i8, ptr %21, align 8
  %66 = zext i8 %65 to i32
  %67 = shl nuw nsw i32 %66, 8
  %68 = or disjoint i32 %67, %64
  %69 = load i32, ptr %43, align 4
  %70 = and i32 %69, 255
  %71 = or disjoint i32 %68, %70
  %72 = getelementptr inbounds nuw i8, ptr %0, i64 2408
  store i32 %71, ptr %72, align 4
  br label %ahci_write_fis_d2h.exit.thread

ahci_write_fis_d2h.exit.thread:                   ; preds = %5, %8, %12, %1
  ret void
}